target datalayout = "e-m:e-p270:32:32-p271:32:32-p272:64:64-i64:64-i128:128-f80:128-n8:16:32:64-S128"
target triple = "x86_64-pc-linux-gnu"

%"class.icu_77::Locale" = type <{ %"class.icu_77::UObject", [12 x i8], [6 x i8], [4 x i8], [2 x i8], i32, [4 x i8], ptr, [157 x i8], [3 x i8], ptr, i8, [7 x i8] }>
%"class.icu_77::UObject" = type { ptr }
%"class.icu_77::UnicodeString" = type { %"class.icu_77::Replaceable", %"union.icu_77::UnicodeString::StackBufferOrFields" }
%"class.icu_77::Replaceable" = type { %"class.icu_77::UObject" }
%"union.icu_77::UnicodeString::StackBufferOrFields" = type { %struct.anon.0, [32 x i8] }
%struct.anon.0 = type { i16, i32, i32, ptr }
%"class.icu_77::CFactory" = type { %"class.icu_77::LocaleKeyFactory.base", ptr, ptr }
%"class.icu_77::LocaleKeyFactory.base" = type <{ %"class.icu_77::ICUServiceFactory", %"class.icu_77::UnicodeString", i32 }>
%"class.icu_77::ICUServiceFactory" = type { %"class.icu_77::UObject" }

@_ZTIN6icu_7713ICUServiceKeyE = external constant ptr
@_ZTIN6icu_779LocaleKeyE = external constant ptr

; Function Attrs: mustprogress uwtable
define noundef ptr @_ZNK6icu_778CFactory6createERKNS_13ICUServiceKeyEPKNS_10ICUServiceER10UErrorCode(ptr noundef nonnull align 8 dereferenceable(96) %0, ptr noundef nonnull align 8 dereferenceable(72) %1, ptr noundef %2, ptr noundef nonnull align 4 dereferenceable(4) %3) unnamed_addr #3 align 2 personality ptr @__gxx_personality_v0 {
  %5 = alloca ptr, align 8
  %6 = alloca ptr, align 8
  %7 = alloca ptr, align 8
  %8 = alloca ptr, align 8
  %9 = alloca ptr, align 8
  %10 = alloca ptr, align 8
  %11 = alloca %"class.icu_77::Locale", align 8
  %12 = alloca ptr, align 8
  %13 = alloca i32, align 4
  store ptr %0, ptr %6, align 8, !tbaa !76
  store ptr %1, ptr %7, align 8, !tbaa !14
  store ptr %2, ptr %8, align 8, !tbaa !16
  store ptr %3, ptr %9, align 8, !tbaa !18
  %14 = load ptr, ptr %6, align 8
  %15 = load ptr, ptr %7, align 8, !tbaa !14
  %16 = load ptr, ptr %9, align 8, !tbaa !18
  %17 = load ptr, ptr %14, align 8, !tbaa !19
  %18 = getelementptr inbounds ptr, ptr %17, i64 6
  %19 = load ptr, ptr %18, align 8
  %20 = call noundef signext i8 %19(ptr noundef nonnull align 8 dereferenceable(76) %14, ptr noundef nonnull align 8 dereferenceable(72) %15, ptr noundef nonnull align 4 dereferenceable(4) %16)
  %21 = icmp ne i8 %20, 0
  br i1 %21, label %22, label %47

22:                                               ; preds = %4
  call void @llvm.lifetime.start.p0(i64 8, ptr %10) #14
  %23 = load ptr, ptr %7, align 8, !tbaa !14
  %24 = icmp eq ptr %23, null
  br i1 %24, label %27, label %25

25:                                               ; preds = %22
  %26 = call ptr @__dynamic_cast(ptr %23, ptr @_ZTIN6icu_7713ICUServiceKeyE, ptr @_ZTIN6icu_779LocaleKeyE, i64 0) #14
  br label %28

27:                                               ; preds = %22
  br label %28

28:                                               ; preds = %27, %25
  %29 = phi ptr [ %26, %25 ], [ null, %27 ]
  store ptr %29, ptr %10, align 8, !tbaa !21
  call void @llvm.lifetime.start.p0(i64 224, ptr %11) #14
  call void @_ZN6icu_776LocaleC1Ev(ptr noundef nonnull align 8 dereferenceable(217) %11)
  %30 = load ptr, ptr %10, align 8, !tbaa !21
  %31 = load ptr, ptr %30, align 8, !tbaa !19
  %32 = getelementptr inbounds ptr, ptr %31, i64 12
  %33 = load ptr, ptr %32, align 8
  %34 = invoke noundef nonnull align 8 dereferenceable(217) ptr %33(ptr noundef nonnull align 8 dereferenceable(272) %30, ptr noundef nonnull align 8 dereferenceable(217) %11)
          to label %35 unwind label %43

35:                                               ; preds = %28
  %36 = getelementptr inbounds nuw %"class.icu_77::CFactory", ptr %14, i32 0, i32 1
  %37 = load ptr, ptr %36, align 8, !tbaa !78
  %38 = load ptr, ptr %37, align 8, !tbaa !19
  %39 = getelementptr inbounds ptr, ptr %38, i64 4
  %40 = load ptr, ptr %39, align 8
  %41 = invoke noundef ptr %40(ptr noundef nonnull align 8 dereferenceable(8) %37, ptr noundef nonnull align 8 dereferenceable(217) %11)
          to label %42 unwind label %43

42:                                               ; preds = %35
  store ptr %41, ptr %5, align 8
  call void @_ZN6icu_776LocaleD1Ev(ptr noundef nonnull align 8 dereferenceable(217) %11) #14
  call void @llvm.lifetime.end.p0(i64 224, ptr %11) #14
  call void @llvm.lifetime.end.p0(i64 8, ptr %10) #14
  br label %48

43:                                               ; preds = %35, %28
  %44 = landingpad { ptr, i32 }
          cleanup
  %45 = extractvalue { ptr, i32 } %44, 0
  store ptr %45, ptr %12, align 8
  %46 = extractvalue { ptr, i32 } %44, 1
  store i32 %46, ptr %13, align 4
  call void @_ZN6icu_776LocaleD1Ev(ptr noundef nonnull align 8 dereferenceable(217) %11) #14
  call void @llvm.lifetime.end.p0(i64 224, ptr %11) #14
  call void @llvm.lifetime.end.p0(i64 8, ptr %10) #14
  br label %50

47:                                               ; preds = %4
  store ptr null, ptr %5, align 8
  br label %48

48:                                               ; preds = %47, %42
  %49 = load ptr, ptr %5, align 8
  ret ptr %49

50:                                               ; preds = %43
  %51 = load ptr, ptr %12, align 8
  %52 = load i32, ptr %13, align 4
  %53 = insertvalue { ptr, i32 } poison, ptr %51, 0
  %54 = insertvalue { ptr, i32 } %53, i32 %52, 1
  resume { ptr, i32 } %54
}