; Function Attrs: mustprogress uwtable
define noundef ptr @_ZNK6icu_778CFactory6createERKNS_13ICUServiceKeyEPKNS_10ICUServiceER10UErrorCode(ptr noundef nonnull align 8 dereferenceable(96) %0, ptr noundef nonnull align 8 dereferenceable(72) %1, ptr readnone captures(none) %2, ptr noundef nonnull align 4 dereferenceable(4) %3) unnamed_addr #5 align 2 personality ptr @__gxx_personality_v0 {
  %5 = alloca %"class.icu_77::Locale", align 8
  %6 = load ptr, ptr %0, align 8, !tbaa !3
  %7 = getelementptr inbounds nuw i8, ptr %6, i64 48
  %8 = load ptr, ptr %7, align 8
  %9 = tail call noundef signext i8 %8(ptr noundef nonnull align 8 dereferenceable(76) %0, ptr noundef nonnull align 8 dereferenceable(72) %1, ptr noundef nonnull align 4 dereferenceable(4) %3)
  %.not = icmp eq i8 %9, 0
  br i1 %.not, label %26, label %10

10:                                               ; preds = %4
  %11 = tail call ptr @__dynamic_cast(ptr nonnull %1, ptr nonnull @_ZTIN6icu_7713ICUServiceKeyE, ptr nonnull @_ZTIN6icu_779LocaleKeyE, i64 0) #16
  call void @llvm.lifetime.start.p0(i64 224, ptr nonnull %5) #16
  call void @_ZN6icu_776LocaleC1Ev(ptr noundef nonnull align 8 dereferenceable(217) %5)
  %12 = load ptr, ptr %11, align 8, !tbaa !3
  %13 = getelementptr inbounds nuw i8, ptr %12, i64 96
  %14 = load ptr, ptr %13, align 8
  %15 = invoke noundef nonnull align 8 dereferenceable(217) ptr %14(ptr noundef nonnull align 8 dereferenceable(272) %11, ptr noundef nonnull align 8 dereferenceable(217) %5)
          to label %16 unwind label %24

16:                                               ; preds = %10
  %17 = getelementptr inbounds nuw i8, ptr %0, i64 80
  %18 = load ptr, ptr %17, align 8, !tbaa !46
  %19 = load ptr, ptr %18, align 8, !tbaa !3
  %20 = getelementptr inbounds nuw i8, ptr %19, i64 32
  %21 = load ptr, ptr %20, align 8
  %22 = invoke noundef ptr %21(ptr noundef nonnull align 8 dereferenceable(8) %18, ptr noundef nonnull align 8 dereferenceable(217) %5)
          to label %23 unwind label %24

23:                                               ; preds = %16
  call void @_ZN6icu_776LocaleD1Ev(ptr noundef nonnull align 8 dereferenceable(217) %5) #16
  call void @llvm.lifetime.end.p0(i64 224, ptr nonnull %5) #16
  br label %26

24:                                               ; preds = %16, %10
  %25 = landingpad { ptr, i32 }
          cleanup
  call void @_ZN6icu_776LocaleD1Ev(ptr noundef nonnull align 8 dereferenceable(217) %5) #16
  call void @llvm.lifetime.end.p0(i64 224, ptr nonnull %5) #16
  resume { ptr, i32 } %25

26:                                               ; preds = %4, %23
  %.0 = phi ptr [ %22, %23 ], [ null, %4 ]
  ret ptr %.0
}